target datalayout = "e-m:e-p270:32:32-p271:32:32-p272:64:64-i64:64-i128:128-f80:128-n8:16:32:64-S128"
target triple = "x86_64-unknown-linux-gnu"

%"class.google::protobuf::io::Tokenizer" = type { %"struct.google::protobuf::io::Tokenizer::Token", %"struct.google::protobuf::io::Tokenizer::Token", ptr, ptr, i8, ptr, i32, i32, i8, i32, i32, ptr, i32, i8, i32, i8, i8, i8, i8 }
%"struct.google::protobuf::io::Tokenizer::Token" = type <{ i32, [4 x i8], %"class.std::__cxx11::basic_string", i32, i32, i32, [4 x i8] }>
%"class.std::__cxx11::basic_string" = type { %"struct.std::__cxx11::basic_string<char>::_Alloc_hider", i64, %union.anon }
%"struct.std::__cxx11::basic_string<char>::_Alloc_hider" = type { ptr }
%union.anon = type { i64, [8 x i8] }

; Function Attrs: mustprogress nounwind uwtable
define internal noundef zeroext i1 @_ZN6google8protobuf2io12_GLOBAL__N_112Alphanumeric7InClassEc(i8 noundef signext %c) #4 align 2 {
entry:
  %c.addr = alloca i8, align 1
  store i8 %c, ptr %c.addr, align 1
  %0 = load i8, ptr %c.addr, align 1
  %conv = sext i8 %0 to i32
  %cmp = icmp sle i32 97, %conv
  br i1 %cmp, label %land.lhs.true, label %lor.lhs.false

land.lhs.true:                                    ; preds = %entry
  %1 = load i8, ptr %c.addr, align 1
  %conv1 = sext i8 %1 to i32
  %cmp2 = icmp sle i32 %conv1, 122
  br i1 %cmp2, label %lor.end, label %lor.lhs.false

lor.lhs.false:                                    ; preds = %land.lhs.true, %entry
  %2 = load i8, ptr %c.addr, align 1
  %conv3 = sext i8 %2 to i32
  %cmp4 = icmp sle i32 65, %conv3
  br i1 %cmp4, label %land.lhs.true5, label %lor.lhs.false8

land.lhs.true5:                                   ; preds = %lor.lhs.false
  %3 = load i8, ptr %c.addr, align 1
  %conv6 = sext i8 %3 to i32
  %cmp7 = icmp sle i32 %conv6, 90
  br i1 %cmp7, label %lor.end, label %lor.lhs.false8

lor.lhs.false8:                                   ; preds = %land.lhs.true5, %lor.lhs.false
  %4 = load i8, ptr %c.addr, align 1
  %conv9 = sext i8 %4 to i32
  %cmp10 = icmp sle i32 48, %conv9
  br i1 %cmp10, label %land.lhs.true11, label %lor.rhs

land.lhs.true11:                                  ; preds = %lor.lhs.false8
  %5 = load i8, ptr %c.addr, align 1
  %conv12 = sext i8 %5 to i32
  %cmp13 = icmp sle i32 %conv12, 57
  br i1 %cmp13, label %lor.end, label %lor.rhs

lor.rhs:                                          ; preds = %land.lhs.true11, %lor.lhs.false8
  %6 = load i8, ptr %c.addr, align 1
  %conv14 = sext i8 %6 to i32
  %cmp15 = icmp eq i32 %conv14, 95
  br label %lor.end

lor.end:                                          ; preds = %lor.rhs, %land.lhs.true11, %land.lhs.true5, %land.lhs.true
  %7 = phi i1 [ true, %land.lhs.true11 ], [ true, %land.lhs.true5 ], [ true, %land.lhs.true ], [ %cmp15, %lor.rhs ]
  ret i1 %7
}

; Function Attrs: mustprogress uwtable
define internal void @_ZN6google8protobuf2io9Tokenizer17ConsumeZeroOrMoreINS1_12_GLOBAL__N_112AlphanumericEEEvv(ptr noundef nonnull align 8 dereferenceable(192) %this) #6 align 2 {
entry:
  %this.addr = alloca ptr, align 8
  store ptr %this, ptr %this.addr, align 8
  %this1 = load ptr, ptr %this.addr, align 8
  br label %while.cond

while.cond:                                       ; preds = %while.body, %entry
  %current_char_ = getelementptr inbounds %"class.google::protobuf::io::Tokenizer", ptr %this1, i32 0, i32 4
  %0 = load i8, ptr %current_char_, align 8
  %call = call noundef zeroext i1 @_ZN6google8protobuf2io12_GLOBAL__N_112Alphanumeric7InClassEc(i8 noundef signext %0)
  br i1 %call, label %while.body, label %while.end

while.body:                                       ; preds = %while.cond
  call void @_ZN6google8protobuf2io9Tokenizer8NextCharEv(ptr noundef nonnull align 8 dereferenceable(192) %this1)
  br label %while.cond, !llvm.loop !18

while.end:                                        ; preds = %while.cond
  ret void
}