; Function Attrs: mustprogress uwtable
define internal fastcc void @_ZN6google8protobuf2io9Tokenizer17ConsumeZeroOrMoreINS1_12_GLOBAL__N_112AlphanumericEEEvv(ptr noundef nonnull align 8 dereferenceable(192) %this) unnamed_addr #6 align 2 {
entry:
  %current_char_ = getelementptr inbounds nuw i8, ptr %this, i64 128
  %0 = load i8, ptr %current_char_, align 8
  %1 = and i8 %0, -33
  %2 = add i8 %1, -65
  %or.cond9.i1 = icmp ult i8 %2, 26
  %3 = add i8 %0, -48
  %or.cond2.i2 = icmp ult i8 %3, 10
  %or.cond10.i3 = or i1 %or.cond2.i2, %or.cond9.i1
  %cmp15.i4 = icmp eq i8 %0, 95
  %spec.select.i5 = or i1 %cmp15.i4, %or.cond10.i3
  br i1 %spec.select.i5, label %while.body, label %while.end

while.body:                                       ; preds = %entry, %while.body
  tail call void @_ZN6google8protobuf2io9Tokenizer8NextCharEv(ptr noundef nonnull align 8 dereferenceable(192) %this)
  %4 = load i8, ptr %current_char_, align 8
  %5 = and i8 %4, -33
  %6 = add i8 %5, -65
  %or.cond9.i = icmp ult i8 %6, 26
  %7 = add i8 %4, -48
  %or.cond2.i = icmp ult i8 %7, 10
  %or.cond10.i = or i1 %or.cond2.i, %or.cond9.i
  %cmp15.i = icmp eq i8 %4, 95
  %spec.select.i = or i1 %cmp15.i, %or.cond10.i
  br i1 %spec.select.i, label %while.body, label %while.end, !llvm.loop !20

while.end:                                        ; preds = %while.body, %entry
  ret void
}